target datalayout = "e-m:e-p270:32:32-p271:32:32-p272:64:64-i64:64-i128:128-f80:128-n8:16:32:64-S128"
target triple = "x86_64-pc-linux-gnu"

%class.arith_util = type { ptr, ptr }
%class.bv_util = type { %class.bv_recognizers, ptr, ptr }
%class.bv_recognizers = type { i32 }
%class.bv2int_rewriter = type { ptr, ptr, %class.bv_util, %class.arith_util }

; Function Attrs: mustprogress uwtable
define hidden void @_ZN15bv2int_rewriterC2ER11ast_managerR19bv2int_rewriter_ctx(ptr noundef nonnull align 8 dereferenceable(56) %0, ptr noundef nonnull align 8 dereferenceable(976) %1, ptr noundef nonnull align 8 dereferenceable(64) %2) unnamed_addr #4 align 2 {
  %4 = alloca ptr, align 8
  %5 = alloca ptr, align 8
  %6 = alloca ptr, align 8
  store ptr %0, ptr %4, align 8, !tbaa !78
  store ptr %1, ptr %5, align 8, !tbaa !26
  store ptr %2, ptr %6, align 8, !tbaa !3
  %7 = load ptr, ptr %4, align 8
  %8 = getelementptr inbounds nuw %class.bv2int_rewriter, ptr %7, i32 0, i32 0
  %9 = load ptr, ptr %5, align 8, !tbaa !26
  store ptr %9, ptr %8, align 8, !tbaa !26
  %10 = getelementptr inbounds nuw %class.bv2int_rewriter, ptr %7, i32 0, i32 1
  %11 = load ptr, ptr %6, align 8, !tbaa !3
  store ptr %11, ptr %10, align 8, !tbaa !3
  %12 = getelementptr inbounds nuw %class.bv2int_rewriter, ptr %7, i32 0, i32 2
  %13 = load ptr, ptr %5, align 8, !tbaa !26
  call void @_ZN7bv_utilC1ER11ast_manager(ptr noundef nonnull align 8 dereferenceable(24) %12, ptr noundef nonnull align 8 dereferenceable(976) %13)
  %14 = getelementptr inbounds nuw %class.bv2int_rewriter, ptr %7, i32 0, i32 3
  %15 = load ptr, ptr %5, align 8, !tbaa !26
  call void @_ZN10arith_utilC1ER11ast_manager(ptr noundef nonnull align 8 dereferenceable(16) %14, ptr noundef nonnull align 8 dereferenceable(976) %15)
  ret void
}