; Function Attrs: mustprogress uwtable
define hidden void @_ZN15bv2int_rewriterC2ER11ast_managerR19bv2int_rewriter_ctx(ptr noundef nonnull align 8 dereferenceable(56) initializes((0, 16)) %0, ptr noundef nonnull align 8 dereferenceable(976) %1, ptr noundef nonnull align 8 dereferenceable(64) %2) unnamed_addr #3 align 2 {
  store ptr %1, ptr %0, align 8, !tbaa !101
  %4 = getelementptr inbounds nuw i8, ptr %0, i64 8
  store ptr %2, ptr %4, align 8, !tbaa !102
  %5 = getelementptr inbounds nuw i8, ptr %0, i64 16
  tail call void @_ZN7bv_utilC1ER11ast_manager(ptr noundef nonnull align 8 dereferenceable(24) %5, ptr noundef nonnull align 8 dereferenceable(976) %1)
  %6 = getelementptr inbounds nuw i8, ptr %0, i64 40
  tail call void @_ZN10arith_utilC1ER11ast_manager(ptr noundef nonnull align 8 dereferenceable(16) %6, ptr noundef nonnull align 8 dereferenceable(976) %1)
  ret void
}